target datalayout = "e-m:e-p270:32:32-p271:32:32-p272:64:64-i64:64-i128:128-f80:128-n8:16:32:64-S128"
target triple = "x86_64-pc-linux-gnu"

@.str.4 = private unnamed_addr constant [2 x i8] c"\0A\00", align 1
@.str.5 = private unnamed_addr constant [68 x i8] c"    memory_libmap -lib <library_file> [-D <condition>] [selection]\0A\00", align 1
@.str.6 = private unnamed_addr constant [68 x i8] c"This pass takes a description of available RAM cell types and maps\0A\00", align 1
@.str.7 = private unnamed_addr constant [75 x i8] c"all selected memories to one of them, or leaves them to be mapped to FFs.\0A\00", align 1
@.str.8 = private unnamed_addr constant [23 x i8] c"  -lib <library_file>\0A\00", align 1
@.str.9 = private unnamed_addr constant [73 x i8] c"    Selects a library file containing RAM cell definitions. This option\0A\00", align 1
@.str.10 = private unnamed_addr constant [64 x i8] c"    can be passed more than once to select multiple libraries.\0A\00", align 1
@.str.11 = private unnamed_addr constant [72 x i8] c"    See passes/memory/memlib.md for description of the library format.\0A\00", align 1
@.str.12 = private unnamed_addr constant [18 x i8] c"  -D <condition>\0A\00", align 1
@.str.13 = private unnamed_addr constant [69 x i8] c"    Enables a condition that can be checked within the library file\0A\00", align 1
@.str.14 = private unnamed_addr constant [65 x i8] c"    to eg. select between slightly different hardware variants.\0A\00", align 1
@.str.15 = private unnamed_addr constant [52 x i8] c"    This option can be passed any number of times.\0A\00", align 1
@.str.16 = private unnamed_addr constant [25 x i8] c"  -logic-cost-rom <num>\0A\00", align 1
@.str.17 = private unnamed_addr constant [25 x i8] c"  -logic-cost-ram <num>\0A\00", align 1
@.str.18 = private unnamed_addr constant [69 x i8] c"    Sets the cost of a single bit for memory lowered to soft logic.\0A\00", align 1
@.str.19 = private unnamed_addr constant [24 x i8] c"  -no-auto-distributed\0A\00", align 1
@.str.20 = private unnamed_addr constant [18 x i8] c"  -no-auto-block\0A\00", align 1
@.str.21 = private unnamed_addr constant [17 x i8] c"  -no-auto-huge\0A\00", align 1
@.str.22 = private unnamed_addr constant [71 x i8] c"    Disables automatic mapping of given kind of RAMs.  Manual mapping\0A\00", align 1
@.str.23 = private unnamed_addr constant [63 x i8] c"    (using ram_style or other attributes) is still supported.\0A\00", align 1

; Function Attrs: mustprogress uwtable
define internal void @_ZN12_GLOBAL__N_116MemoryLibMapPass4helpEv(ptr noundef nonnull align 8 dereferenceable(104) %0) unnamed_addr #4 align 2 {
  %2 = alloca ptr, align 8
  store ptr %0, ptr %2, align 8, !tbaa !6
  call void (ptr, ...) @_ZN5Yosys3logEPKcz(ptr noundef @.str.4)
  call void (ptr, ...) @_ZN5Yosys3logEPKcz(ptr noundef @.str.5)
  call void (ptr, ...) @_ZN5Yosys3logEPKcz(ptr noundef @.str.4)
  call void (ptr, ...) @_ZN5Yosys3logEPKcz(ptr noundef @.str.6)
  call void (ptr, ...) @_ZN5Yosys3logEPKcz(ptr noundef @.str.7)
  call void (ptr, ...) @_ZN5Yosys3logEPKcz(ptr noundef @.str.4)
  call void (ptr, ...) @_ZN5Yosys3logEPKcz(ptr noundef @.str.8)
  call void (ptr, ...) @_ZN5Yosys3logEPKcz(ptr noundef @.str.9)
  call void (ptr, ...) @_ZN5Yosys3logEPKcz(ptr noundef @.str.10)
  call void (ptr, ...) @_ZN5Yosys3logEPKcz(ptr noundef @.str.11)
  call void (ptr, ...) @_ZN5Yosys3logEPKcz(ptr noundef @.str.4)
  call void (ptr, ...) @_ZN5Yosys3logEPKcz(ptr noundef @.str.12)
  call void (ptr, ...) @_ZN5Yosys3logEPKcz(ptr noundef @.str.13)
  call void (ptr, ...) @_ZN5Yosys3logEPKcz(ptr noundef @.str.14)
  call void (ptr, ...) @_ZN5Yosys3logEPKcz(ptr noundef @.str.15)
  call void (ptr, ...) @_ZN5Yosys3logEPKcz(ptr noundef @.str.4)
  call void (ptr, ...) @_ZN5Yosys3logEPKcz(ptr noundef @.str.16)
  call void (ptr, ...) @_ZN5Yosys3logEPKcz(ptr noundef @.str.17)
  call void (ptr, ...) @_ZN5Yosys3logEPKcz(ptr noundef @.str.18)
  call void (ptr, ...) @_ZN5Yosys3logEPKcz(ptr noundef @.str.4)
  call void (ptr, ...) @_ZN5Yosys3logEPKcz(ptr noundef @.str.19)
  call void (ptr, ...) @_ZN5Yosys3logEPKcz(ptr noundef @.str.20)
  call void (ptr, ...) @_ZN5Yosys3logEPKcz(ptr noundef @.str.21)
  call void (ptr, ...) @_ZN5Yosys3logEPKcz(ptr noundef @.str.22)
  call void (ptr, ...) @_ZN5Yosys3logEPKcz(ptr noundef @.str.23)
  call void (ptr, ...) @_ZN5Yosys3logEPKcz(ptr noundef @.str.4)
  ret void
}